; Function Attrs: mustprogress nounwind uwtable
define hidden noundef zeroext i1 @_ZN17DependencyContext20is_dependent_nmethodEP7nmethod(ptr nocapture noundef nonnull readonly align 8 dereferenceable(16) %0, ptr noundef readnone %1) local_unnamed_addr #0 align 2 {
  %3 = tail call noundef ptr @_ZN17DependencyContext26dependencies_not_unloadingEv(ptr noundef nonnull align 8 dereferenceable(16) %0)
  %.not7.not = icmp eq ptr %3, null
  br i1 %.not7.not, label %._crit_edge, label %.lr.ph

.lr.ph:                                           ; preds = %2, %6
  %.08 = phi ptr [ %7, %6 ], [ %3, %2 ]
  %4 = load ptr, ptr %.08, align 8
  %5 = icmp eq ptr %4, %1
  br i1 %5, label %._crit_edge, label %6

6:                                                ; preds = %.lr.ph
  %7 = tail call noundef ptr @_ZN13nmethodBucket18next_not_unloadingEv(ptr noundef nonnull align 8 dereferenceable(24) %.08)
  %.not.not = icmp eq ptr %7, null
  br i1 %.not.not, label %._crit_edge, label %.lr.ph, !llvm.loop !20

._crit_edge:                                      ; preds = %.lr.ph, %6, %2
  %.not.lcssa = phi i1 [ false, %2 ], [ %5, %6 ], [ %5, %.lr.ph ]
  ret i1 %.not.lcssa
}